target datalayout = "e-m:e-p270:32:32-p271:32:32-p272:64:64-i64:64-i128:128-f80:128-n8:16:32:64-S128"
target triple = "x86_64-pc-linux-gnu"

; Function Attrs: nounwind uwtable
define internal i32 @GradientPredictor_C(i8 noundef zeroext %0, i8 noundef zeroext %1, i8 noundef zeroext %2) #0 {
  %4 = alloca i8, align 1
  %5 = alloca i8, align 1
  %6 = alloca i8, align 1
  %7 = alloca i32, align 4
  store i8 %0, ptr %4, align 1
  store i8 %1, ptr %5, align 1
  store i8 %2, ptr %6, align 1
  %8 = load i8, ptr %4, align 1
  %9 = zext i8 %8 to i32
  %10 = load i8, ptr %5, align 1
  %11 = zext i8 %10 to i32
  %12 = add nsw i32 %9, %11
  %13 = load i8, ptr %6, align 1
  %14 = zext i8 %13 to i32
  %15 = sub nsw i32 %12, %14
  store i32 %15, ptr %7, align 4
  %16 = load i32, ptr %7, align 4
  %17 = and i32 %16, -256
  %18 = icmp eq i32 %17, 0
  br i1 %18, label %19, label %21

19:                                               ; preds = %3
  %20 = load i32, ptr %7, align 4
  br label %25

21:                                               ; preds = %3
  %22 = load i32, ptr %7, align 4
  %23 = icmp slt i32 %22, 0
  %24 = select i1 %23, i32 0, i32 255
  br label %25

25:                                               ; preds = %21, %19
  %26 = phi i32 [ %20, %19 ], [ %24, %21 ]
  ret i32 %26
}

; Function Attrs: nounwind uwtable
define internal void @PredictLine_C(ptr noundef %0, ptr noundef %1, ptr noundef %2, i32 noundef %3, i32 noundef %4) #0 {
  %6 = alloca ptr, align 8
  %7 = alloca ptr, align 8
  %8 = alloca ptr, align 8
  %9 = alloca i32, align 4
  %10 = alloca i32, align 4
  %11 = alloca i32, align 4
  store ptr %0, ptr %6, align 8
  store ptr %1, ptr %7, align 8
  store ptr %2, ptr %8, align 8
  store i32 %3, ptr %9, align 4
  store i32 %4, ptr %10, align 4
  %12 = load i32, ptr %10, align 4
  %13 = icmp ne i32 %12, 0
  br i1 %13, label %14, label %42

14:                                               ; preds = %5
  store i32 0, ptr %11, align 4
  br label %15

15:                                               ; preds = %38, %14
  %16 = load i32, ptr %11, align 4
  %17 = load i32, ptr %9, align 4
  %18 = icmp slt i32 %16, %17
  br i1 %18, label %19, label %41

19:                                               ; preds = %15
  %20 = load ptr, ptr %6, align 8
  %21 = load i32, ptr %11, align 4
  %22 = sext i32 %21 to i64
  %23 = getelementptr inbounds i8, ptr %20, i64 %22
  %24 = load i8, ptr %23, align 1
  %25 = zext i8 %24 to i32
  %26 = load ptr, ptr %7, align 8
  %27 = load i32, ptr %11, align 4
  %28 = sext i32 %27 to i64
  %29 = getelementptr inbounds i8, ptr %26, i64 %28
  %30 = load i8, ptr %29, align 1
  %31 = zext i8 %30 to i32
  %32 = add nsw i32 %25, %31
  %33 = trunc i32 %32 to i8
  %34 = load ptr, ptr %8, align 8
  %35 = load i32, ptr %11, align 4
  %36 = sext i32 %35 to i64
  %37 = getelementptr inbounds i8, ptr %34, i64 %36
  store i8 %33, ptr %37, align 1
  br label %38

38:                                               ; preds = %19
  %39 = load i32, ptr %11, align 4
  %40 = add nsw i32 %39, 1
  store i32 %40, ptr %11, align 4
  br label %15, !llvm.loop !9

41:                                               ; preds = %15
  br label %70

42:                                               ; preds = %5
  store i32 0, ptr %11, align 4
  br label %43

43:                                               ; preds = %66, %42
  %44 = load i32, ptr %11, align 4
  %45 = load i32, ptr %9, align 4
  %46 = icmp slt i32 %44, %45
  br i1 %46, label %47, label %69

47:                                               ; preds = %43
  %48 = load ptr, ptr %6, align 8
  %49 = load i32, ptr %11, align 4
  %50 = sext i32 %49 to i64
  %51 = getelementptr inbounds i8, ptr %48, i64 %50
  %52 = load i8, ptr %51, align 1
  %53 = zext i8 %52 to i32
  %54 = load ptr, ptr %7, align 8
  %55 = load i32, ptr %11, align 4
  %56 = sext i32 %55 to i64
  %57 = getelementptr inbounds i8, ptr %54, i64 %56
  %58 = load i8, ptr %57, align 1
  %59 = zext i8 %58 to i32
  %60 = sub nsw i32 %53, %59
  %61 = trunc i32 %60 to i8
  %62 = load ptr, ptr %8, align 8
  %63 = load i32, ptr %11, align 4
  %64 = sext i32 %63 to i64
  %65 = getelementptr inbounds i8, ptr %62, i64 %64
  store i8 %61, ptr %65, align 1
  br label %66

66:                                               ; preds = %47
  %67 = load i32, ptr %11, align 4
  %68 = add nsw i32 %67, 1
  store i32 %68, ptr %11, align 4
  br label %43, !llvm.loop !10

69:                                               ; preds = %43
  br label %70

70:                                               ; preds = %69, %41
  ret void
}

; Function Attrs: nounwind uwtable
define internal void @DoGradientFilter_C(ptr noundef %0, i32 noundef %1, i32 noundef %2, i32 noundef %3, i32 noundef %4, i32 noundef %5, i32 noundef %6, ptr noundef %7) #0 {
  %9 = alloca ptr, align 8
  %10 = alloca i32, align 4
  %11 = alloca i32, align 4
  %12 = alloca i32, align 4
  %13 = alloca i32, align 4
  %14 = alloca i32, align 4
  %15 = alloca i32, align 4
  %16 = alloca ptr, align 8
  %17 = alloca ptr, align 8
  %18 = alloca i64, align 8
  %19 = alloca i32, align 4
  %20 = alloca i32, align 4
  %21 = alloca i32, align 4
  store ptr %0, ptr %9, align 8
  store i32 %1, ptr %10, align 4
  store i32 %2, ptr %11, align 4
  store i32 %3, ptr %12, align 4
  store i32 %4, ptr %13, align 4
  store i32 %5, ptr %14, align 4
  store i32 %6, ptr %15, align 4
  store ptr %7, ptr %16, align 8
  %22 = load i32, ptr %13, align 4
  %23 = load i32, ptr %12, align 4
  %24 = mul nsw i32 %22, %23
  %25 = sext i32 %24 to i64
  store i64 %25, ptr %18, align 8
  %26 = load i32, ptr %13, align 4
  %27 = load i32, ptr %14, align 4
  %28 = add nsw i32 %26, %27
  store i32 %28, ptr %19, align 4
  br label %29

29:                                               ; preds = %8
  br label %30

30:                                               ; preds = %29
  %31 = load i64, ptr %18, align 8
  %32 = load ptr, ptr %9, align 8
  %33 = getelementptr inbounds i8, ptr %32, i64 %31
  store ptr %33, ptr %9, align 8
  %34 = load i64, ptr %18, align 8
  %35 = load ptr, ptr %16, align 8
  %36 = getelementptr inbounds i8, ptr %35, i64 %34
  store ptr %36, ptr %16, align 8
  %37 = load i32, ptr %15, align 4
  %38 = icmp ne i32 %37, 0
  br i1 %38, label %39, label %41

39:                                               ; preds = %30
  %40 = load ptr, ptr %16, align 8
  br label %43

41:                                               ; preds = %30
  %42 = load ptr, ptr %9, align 8
  br label %43

43:                                               ; preds = %41, %39
  %44 = phi ptr [ %40, %39 ], [ %42, %41 ]
  store ptr %44, ptr %17, align 8
  %45 = load i32, ptr %13, align 4
  %46 = icmp eq i32 %45, 0
  br i1 %46, label %47, label %73

47:                                               ; preds = %43
  %48 = load ptr, ptr %9, align 8
  %49 = getelementptr inbounds i8, ptr %48, i64 0
  %50 = load i8, ptr %49, align 1
  %51 = load ptr, ptr %16, align 8
  %52 = getelementptr inbounds i8, ptr %51, i64 0
  store i8 %50, ptr %52, align 1
  %53 = load ptr, ptr %9, align 8
  %54 = getelementptr inbounds i8, ptr %53, i64 1
  %55 = load ptr, ptr %17, align 8
  %56 = load ptr, ptr %16, align 8
  %57 = getelementptr inbounds i8, ptr %56, i64 1
  %58 = load i32, ptr %10, align 4
  %59 = sub nsw i32 %58, 1
  %60 = load i32, ptr %15, align 4
  call void @PredictLine_C(ptr noundef %54, ptr noundef %55, ptr noundef %57, i32 noundef %59, i32 noundef %60)
  store i32 1, ptr %13, align 4
  %61 = load i32, ptr %12, align 4
  %62 = load ptr, ptr %17, align 8
  %63 = sext i32 %61 to i64
  %64 = getelementptr inbounds i8, ptr %62, i64 %63
  store ptr %64, ptr %17, align 8
  %65 = load i32, ptr %12, align 4
  %66 = load ptr, ptr %9, align 8
  %67 = sext i32 %65 to i64
  %68 = getelementptr inbounds i8, ptr %66, i64 %67
  store ptr %68, ptr %9, align 8
  %69 = load i32, ptr %12, align 4
  %70 = load ptr, ptr %16, align 8
  %71 = sext i32 %69 to i64
  %72 = getelementptr inbounds i8, ptr %70, i64 %71
  store ptr %72, ptr %16, align 8
  br label %73

73:                                               ; preds = %47, %43
  br label %74

74:                                               ; preds = %138, %73
  %75 = load i32, ptr %13, align 4
  %76 = load i32, ptr %19, align 4
  %77 = icmp slt i32 %75, %76
  br i1 %77, label %78, label %153

78:                                               ; preds = %74
  %79 = load ptr, ptr %9, align 8
  %80 = load ptr, ptr %17, align 8
  %81 = load i32, ptr %12, align 4
  %82 = sext i32 %81 to i64
  %83 = sub i64 0, %82
  %84 = getelementptr inbounds i8, ptr %80, i64 %83
  %85 = load ptr, ptr %16, align 8
  %86 = load i32, ptr %15, align 4
  call void @PredictLine_C(ptr noundef %79, ptr noundef %84, ptr noundef %85, i32 noundef 1, i32 noundef %86)
  store i32 1, ptr %20, align 4
  br label %87

87:                                               ; preds = %135, %78
  %88 = load i32, ptr %20, align 4
  %89 = load i32, ptr %10, align 4
  %90 = icmp slt i32 %88, %89
  br i1 %90, label %91, label %138

91:                                               ; preds = %87
  %92 = load ptr, ptr %17, align 8
  %93 = load i32, ptr %20, align 4
  %94 = sub nsw i32 %93, 1
  %95 = sext i32 %94 to i64
  %96 = getelementptr inbounds i8, ptr %92, i64 %95
  %97 = load i8, ptr %96, align 1
  %98 = load ptr, ptr %17, align 8
  %99 = load i32, ptr %20, align 4
  %100 = load i32, ptr %12, align 4
  %101 = sub nsw i32 %99, %100
  %102 = sext i32 %101 to i64
  %103 = getelementptr inbounds i8, ptr %98, i64 %102
  %104 = load i8, ptr %103, align 1
  %105 = load ptr, ptr %17, align 8
  %106 = load i32, ptr %20, align 4
  %107 = load i32, ptr %12, align 4
  %108 = sub nsw i32 %106, %107
  %109 = sub nsw i32 %108, 1
  %110 = sext i32 %109 to i64
  %111 = getelementptr inbounds i8, ptr %105, i64 %110
  %112 = load i8, ptr %111, align 1
  %113 = call i32 @GradientPredictor_C(i8 noundef zeroext %97, i8 noundef zeroext %104, i8 noundef zeroext %112)
  store i32 %113, ptr %21, align 4
  %114 = load ptr, ptr %9, align 8
  %115 = load i32, ptr %20, align 4
  %116 = sext i32 %115 to i64
  %117 = getelementptr inbounds i8, ptr %114, i64 %116
  %118 = load i8, ptr %117, align 1
  %119 = zext i8 %118 to i32
  %120 = load i32, ptr %15, align 4
  %121 = icmp ne i32 %120, 0
  br i1 %121, label %122, label %124

122:                                              ; preds = %91
  %123 = load i32, ptr %21, align 4
  br label %127

124:                                              ; preds = %91
  %125 = load i32, ptr %21, align 4
  %126 = sub nsw i32 0, %125
  br label %127

127:                                              ; preds = %124, %122
  %128 = phi i32 [ %123, %122 ], [ %126, %124 ]
  %129 = add nsw i32 %119, %128
  %130 = trunc i32 %129 to i8
  %131 = load ptr, ptr %16, align 8
  %132 = load i32, ptr %20, align 4
  %133 = sext i32 %132 to i64
  %134 = getelementptr inbounds i8, ptr %131, i64 %133
  store i8 %130, ptr %134, align 1
  br label %135

135:                                              ; preds = %127
  %136 = load i32, ptr %20, align 4
  %137 = add nsw i32 %136, 1
  store i32 %137, ptr %20, align 4
  br label %87, !llvm.loop !12

138:                                              ; preds = %87
  %139 = load i32, ptr %13, align 4
  %140 = add nsw i32 %139, 1
  store i32 %140, ptr %13, align 4
  %141 = load i32, ptr %12, align 4
  %142 = load ptr, ptr %17, align 8
  %143 = sext i32 %141 to i64
  %144 = getelementptr inbounds i8, ptr %142, i64 %143
  store ptr %144, ptr %17, align 8
  %145 = load i32, ptr %12, align 4
  %146 = load ptr, ptr %9, align 8
  %147 = sext i32 %145 to i64
  %148 = getelementptr inbounds i8, ptr %146, i64 %147
  store ptr %148, ptr %9, align 8
  %149 = load i32, ptr %12, align 4
  %150 = load ptr, ptr %16, align 8
  %151 = sext i32 %149 to i64
  %152 = getelementptr inbounds i8, ptr %150, i64 %151
  store ptr %152, ptr %16, align 8
  br label %74, !llvm.loop !13

153:                                              ; preds = %74
  ret void
}

; Function Attrs: nounwind uwtable
define internal void @GradientFilter_C(ptr noundef %0, i32 noundef %1, i32 noundef %2, i32 noundef %3, ptr noundef %4) #0 {
  %6 = alloca ptr, align 8
  %7 = alloca i32, align 4
  %8 = alloca i32, align 4
  %9 = alloca i32, align 4
  %10 = alloca ptr, align 8
  store ptr %0, ptr %6, align 8
  store i32 %1, ptr %7, align 4
  store i32 %2, ptr %8, align 4
  store i32 %3, ptr %9, align 4
  store ptr %4, ptr %10, align 8
  %11 = load ptr, ptr %6, align 8
  %12 = load i32, ptr %7, align 4
  %13 = load i32, ptr %8, align 4
  %14 = load i32, ptr %9, align 4
  %15 = load i32, ptr %8, align 4
  %16 = load ptr, ptr %10, align 8
  call void @DoGradientFilter_C(ptr noundef %11, i32 noundef %12, i32 noundef %13, i32 noundef %14, i32 noundef 0, i32 noundef %15, i32 noundef 0, ptr noundef %16)
  ret void
}