; Function Attrs: nofree norecurse nosync nounwind memory(readwrite, inaccessiblemem: none) uwtable
define internal void @GradientFilter_C(ptr nocapture noundef readonly %0, i32 noundef %1, i32 noundef %2, i32 noundef %3, ptr nocapture noundef writeonly %4) #4 {
  %6 = load i8, ptr %0, align 1
  store i8 %6, ptr %4, align 1
  %7 = getelementptr inbounds i8, ptr %0, i64 1
  %8 = getelementptr inbounds i8, ptr %4, i64 1
  %9 = icmp sgt i32 %1, 1
  br i1 %9, label %.lr.ph.preheader.i.i, label %PredictLine_C.exit.thread.i

.lr.ph.preheader.i.i:                             ; preds = %5
  %10 = add nsw i32 %1, -1
  %wide.trip.count.i.i = zext nneg i32 %10 to i64
  br label %.lr.ph.i.i

.lr.ph.i.i:                                       ; preds = %.lr.ph.i.i, %.lr.ph.preheader.i.i
  %indvars.iv.i.i = phi i64 [ 0, %.lr.ph.preheader.i.i ], [ %indvars.iv.next.i.i, %.lr.ph.i.i ]
  %11 = getelementptr inbounds i8, ptr %7, i64 %indvars.iv.i.i
  %12 = load i8, ptr %11, align 1
  %13 = getelementptr inbounds i8, ptr %0, i64 %indvars.iv.i.i
  %14 = load i8, ptr %13, align 1
  %15 = sub i8 %12, %14
  %16 = getelementptr inbounds i8, ptr %8, i64 %indvars.iv.i.i
  store i8 %15, ptr %16, align 1
  %indvars.iv.next.i.i = add nuw nsw i64 %indvars.iv.i.i, 1
  %exitcond.not.i.i = icmp eq i64 %indvars.iv.next.i.i, %wide.trip.count.i.i
  br i1 %exitcond.not.i.i, label %PredictLine_C.exit.i, label %.lr.ph.i.i, !llvm.loop !8

PredictLine_C.exit.i:                             ; preds = %.lr.ph.i.i
  %17 = sext i32 %3 to i64
  %18 = icmp sgt i32 %2, 1
  br i1 %18, label %.lr.ph76.split.us.preheader.i, label %DoGradientFilter_C.exit

PredictLine_C.exit.thread.i:                      ; preds = %5
  %19 = icmp sgt i32 %2, 1
  br i1 %19, label %.lr.ph76.split.preheader.i, label %DoGradientFilter_C.exit

.lr.ph76.split.preheader.i:                       ; preds = %PredictLine_C.exit.thread.i
  %20 = sext i32 %3 to i64
  br label %.lr.ph76.split.i

.lr.ph76.split.us.preheader.i:                    ; preds = %PredictLine_C.exit.i
  %wide.trip.count.i = zext nneg i32 %1 to i64
  br label %.lr.ph76.split.us.i

.lr.ph76.split.us.i:                              ; preds = %PredictLine_C.exit69._crit_edge.us.i, %.lr.ph76.split.us.preheader.i
  %.16075.us.i.pn = phi ptr [ %.16075.us.i, %PredictLine_C.exit69._crit_edge.us.i ], [ %4, %.lr.ph76.split.us.preheader.i ]
  %.174.us.i.pn = phi ptr [ %.174.us.i, %PredictLine_C.exit69._crit_edge.us.i ], [ %0, %.lr.ph76.split.us.preheader.i ]
  %.15873.us.i = phi i32 [ %40, %PredictLine_C.exit69._crit_edge.us.i ], [ 1, %.lr.ph76.split.us.preheader.i ]
  %.174.us.i = getelementptr inbounds i8, ptr %.174.us.i.pn, i64 %17
  %.16075.us.i = getelementptr inbounds i8, ptr %.16075.us.i.pn, i64 %17
  %21 = load i8, ptr %.174.us.i, align 1
  %22 = load i8, ptr %.174.us.i.pn, align 1
  %23 = sub i8 %21, %22
  store i8 %23, ptr %.16075.us.i, align 1
  %invariant.gep = getelementptr i8, ptr %.174.us.i, i64 -1
  %invariant.gep6 = getelementptr i8, ptr %.174.us.i.pn, i64 -1
  br label %PredictLine_C.exit69.us.i

PredictLine_C.exit69.us.i:                        ; preds = %PredictLine_C.exit69.us.i, %.lr.ph76.split.us.i
  %indvars.iv.i = phi i64 [ 1, %.lr.ph76.split.us.i ], [ %indvars.iv.next.i, %PredictLine_C.exit69.us.i ]
  %gep = getelementptr i8, ptr %invariant.gep, i64 %indvars.iv.i
  %24 = load i8, ptr %gep, align 1
  %25 = getelementptr inbounds i8, ptr %.174.us.i.pn, i64 %indvars.iv.i
  %26 = load i8, ptr %25, align 1
  %gep7 = getelementptr i8, ptr %invariant.gep6, i64 %indvars.iv.i
  %27 = load i8, ptr %gep7, align 1
  %28 = zext i8 %24 to i32
  %29 = zext i8 %26 to i32
  %30 = add nuw nsw i32 %29, %28
  %31 = zext i8 %27 to i32
  %32 = sub nsw i32 %30, %31
  %33 = tail call i32 @llvm.smax.i32(i32 %32, i32 0)
  %34 = tail call range(i32 -255, 511) i32 @llvm.umin.i32(i32 %33, i32 255)
  %35 = getelementptr inbounds i8, ptr %.174.us.i, i64 %indvars.iv.i
  %36 = load i8, ptr %35, align 1
  %37 = trunc nuw i32 %34 to i8
  %38 = sub i8 %36, %37
  %39 = getelementptr inbounds i8, ptr %.16075.us.i, i64 %indvars.iv.i
  store i8 %38, ptr %39, align 1
  %indvars.iv.next.i = add nuw nsw i64 %indvars.iv.i, 1
  %exitcond79.not.i = icmp eq i64 %indvars.iv.next.i, %wide.trip.count.i
  br i1 %exitcond79.not.i, label %PredictLine_C.exit69._crit_edge.us.i, label %PredictLine_C.exit69.us.i, !llvm.loop !11

PredictLine_C.exit69._crit_edge.us.i:             ; preds = %PredictLine_C.exit69.us.i
  %40 = add nuw nsw i32 %.15873.us.i, 1
  %exitcond80.not.i = icmp eq i32 %40, %2
  br i1 %exitcond80.not.i, label %DoGradientFilter_C.exit, label %.lr.ph76.split.us.i, !llvm.loop !12

.lr.ph76.split.i:                                 ; preds = %.lr.ph76.split.i, %.lr.ph76.split.preheader.i
  %.16075.i.pn = phi ptr [ %.16075.i, %.lr.ph76.split.i ], [ %4, %.lr.ph76.split.preheader.i ]
  %.174.i.pn = phi ptr [ %.174.i, %.lr.ph76.split.i ], [ %0, %.lr.ph76.split.preheader.i ]
  %.15873.i = phi i32 [ %44, %.lr.ph76.split.i ], [ 1, %.lr.ph76.split.preheader.i ]
  %.174.i = getelementptr inbounds i8, ptr %.174.i.pn, i64 %20
  %.16075.i = getelementptr inbounds i8, ptr %.16075.i.pn, i64 %20
  %41 = load i8, ptr %.174.i, align 1
  %42 = load i8, ptr %.174.i.pn, align 1
  %43 = sub i8 %41, %42
  store i8 %43, ptr %.16075.i, align 1
  %44 = add nuw nsw i32 %.15873.i, 1
  %exitcond.not.i = icmp eq i32 %44, %2
  br i1 %exitcond.not.i, label %DoGradientFilter_C.exit, label %.lr.ph76.split.i, !llvm.loop !12

DoGradientFilter_C.exit:                          ; preds = %.lr.ph76.split.i, %PredictLine_C.exit69._crit_edge.us.i, %PredictLine_C.exit.i, %PredictLine_C.exit.thread.i
  ret void
}